target datalayout = "e-m:e-p270:32:32-p271:32:32-p272:64:64-i64:64-i128:128-f80:128-n8:16:32:64-S128"
target triple = "x86_64-pc-linux-gnu"

%struct.DdManager = type { %struct.DdNode, ptr, ptr, ptr, ptr, ptr, ptr, ptr, i32, i32, double, double, double, i32, i32, i32, i32, i32, i32, ptr, ptr, %struct.DdSubtable, i32, i32, i32, i32, i32, i32, i32, double, i32, i32, i32, ptr, i64, double, i32, ptr, ptr, ptr, ptr, ptr, ptr, ptr, i32, ptr, ptr, ptr, ptr, ptr, ptr, i32, i32, i32, double, i32, i32, i32, i32, double, double, i32, i32, i32, i32, i32, i32, i32, i32, i32, ptr, ptr, i32, i32, i32, i32, i32, i32, ptr, ptr, ptr, ptr, ptr, ptr, ptr, ptr, i32, i64, i64, i64, i32, i64, i64, double, double, double, double, double, double, i32, ptr, ptr, i64 }
%struct.DdNode = type { i32, i32, ptr, %union.anon, i64 }
%union.anon = type { %struct.DdChildren }
%struct.DdChildren = type { ptr, ptr }
%struct.DdSubtable = type { ptr, i32, i32, i32, i32, i32, i32, i32, i32, i32, i32, i32 }

; Function Attrs: nounwind uwtable
define ptr @Cudd_addMaximum(ptr noundef %0, ptr noundef %1, ptr noundef %2) #0 {
  %4 = alloca ptr, align 8
  %5 = alloca ptr, align 8
  %6 = alloca ptr, align 8
  %7 = alloca ptr, align 8
  %8 = alloca ptr, align 8
  %9 = alloca ptr, align 8
  %10 = alloca i32, align 4
  store ptr %0, ptr %5, align 8, !tbaa !3
  store ptr %1, ptr %6, align 8, !tbaa !35
  store ptr %2, ptr %7, align 8, !tbaa !35
  call void @llvm.lifetime.start.p0(i64 8, ptr %8) #4
  call void @llvm.lifetime.start.p0(i64 8, ptr %9) #4
  %11 = load ptr, ptr %6, align 8, !tbaa !35
  %12 = load ptr, ptr %11, align 8, !tbaa !9
  store ptr %12, ptr %8, align 8, !tbaa !9
  %13 = load ptr, ptr %7, align 8, !tbaa !35
  %14 = load ptr, ptr %13, align 8, !tbaa !9
  store ptr %14, ptr %9, align 8, !tbaa !9
  %15 = load ptr, ptr %8, align 8, !tbaa !9
  %16 = load ptr, ptr %9, align 8, !tbaa !9
  %17 = icmp eq ptr %15, %16
  br i1 %17, label %18, label %20

18:                                               ; preds = %3
  %19 = load ptr, ptr %8, align 8, !tbaa !9
  store ptr %19, ptr %4, align 8
  store i32 1, ptr %10, align 4
  br label %68

20:                                               ; preds = %3
  %21 = load ptr, ptr %8, align 8, !tbaa !9
  %22 = load ptr, ptr %5, align 8, !tbaa !3
  %23 = getelementptr inbounds nuw %struct.DdManager, ptr %22, i32 0, i32 4
  %24 = load ptr, ptr %23, align 8, !tbaa !40
  %25 = icmp eq ptr %21, %24
  br i1 %25, label %26, label %28

26:                                               ; preds = %20
  %27 = load ptr, ptr %9, align 8, !tbaa !9
  store ptr %27, ptr %4, align 8
  store i32 1, ptr %10, align 4
  br label %68

28:                                               ; preds = %20
  %29 = load ptr, ptr %9, align 8, !tbaa !9
  %30 = load ptr, ptr %5, align 8, !tbaa !3
  %31 = getelementptr inbounds nuw %struct.DdManager, ptr %30, i32 0, i32 4
  %32 = load ptr, ptr %31, align 8, !tbaa !40
  %33 = icmp eq ptr %29, %32
  br i1 %33, label %34, label %36

34:                                               ; preds = %28
  %35 = load ptr, ptr %8, align 8, !tbaa !9
  store ptr %35, ptr %4, align 8
  store i32 1, ptr %10, align 4
  br label %68

36:                                               ; preds = %28
  %37 = load ptr, ptr %8, align 8, !tbaa !9
  %38 = getelementptr inbounds nuw %struct.DdNode, ptr %37, i32 0, i32 0
  %39 = load i32, ptr %38, align 8, !tbaa !30
  %40 = icmp eq i32 %39, 2147483647
  br i1 %40, label %41, label %58

41:                                               ; preds = %36
  %42 = load ptr, ptr %9, align 8, !tbaa !9
  %43 = getelementptr inbounds nuw %struct.DdNode, ptr %42, i32 0, i32 0
  %44 = load i32, ptr %43, align 8, !tbaa !30
  %45 = icmp eq i32 %44, 2147483647
  br i1 %45, label %46, label %58

46:                                               ; preds = %41
  %47 = load ptr, ptr %8, align 8, !tbaa !9
  %48 = getelementptr inbounds nuw %struct.DdNode, ptr %47, i32 0, i32 3
  %49 = load double, ptr %48, align 8, !tbaa !33
  %50 = load ptr, ptr %9, align 8, !tbaa !9
  %51 = getelementptr inbounds nuw %struct.DdNode, ptr %50, i32 0, i32 3
  %52 = load double, ptr %51, align 8, !tbaa !33
  %53 = fcmp oge double %49, %52
  br i1 %53, label %54, label %56

54:                                               ; preds = %46
  %55 = load ptr, ptr %8, align 8, !tbaa !9
  store ptr %55, ptr %4, align 8
  store i32 1, ptr %10, align 4
  br label %68

56:                                               ; preds = %46
  %57 = load ptr, ptr %9, align 8, !tbaa !9
  store ptr %57, ptr %4, align 8
  store i32 1, ptr %10, align 4
  br label %68

58:                                               ; preds = %41, %36
  %59 = load ptr, ptr %8, align 8, !tbaa !9
  %60 = load ptr, ptr %9, align 8, !tbaa !9
  %61 = icmp ugt ptr %59, %60
  br i1 %61, label %62, label %67

62:                                               ; preds = %58
  %63 = load ptr, ptr %9, align 8, !tbaa !9
  %64 = load ptr, ptr %6, align 8, !tbaa !35
  store ptr %63, ptr %64, align 8, !tbaa !9
  %65 = load ptr, ptr %8, align 8, !tbaa !9
  %66 = load ptr, ptr %7, align 8, !tbaa !35
  store ptr %65, ptr %66, align 8, !tbaa !9
  br label %67

67:                                               ; preds = %62, %58
  store ptr null, ptr %4, align 8
  store i32 1, ptr %10, align 4
  br label %68

68:                                               ; preds = %67, %56, %54, %34, %26, %18
  call void @llvm.lifetime.end.p0(i64 8, ptr %9) #4
  call void @llvm.lifetime.end.p0(i64 8, ptr %8) #4
  %69 = load ptr, ptr %4, align 8
  ret ptr %69
}