; Function Attrs: mustprogress nofree norecurse nosync nounwind willreturn memory(read, argmem: readwrite, inaccessiblemem: none) uwtable
define ptr @Cudd_addMaximum(ptr noundef readonly captures(none) %0, ptr noundef captures(none) %1, ptr noundef captures(none) %2) local_unnamed_addr #3 {
  %4 = load ptr, ptr %1, align 8, !tbaa !26
  %5 = load ptr, ptr %2, align 8, !tbaa !26
  %6 = icmp eq ptr %4, %5
  br i1 %6, label %28, label %7

7:                                                ; preds = %3
  %8 = getelementptr inbounds nuw i8, ptr %0, i64 64
  %9 = load ptr, ptr %8, align 8, !tbaa !35
  %10 = icmp eq ptr %4, %9
  br i1 %10, label %28, label %11

11:                                               ; preds = %7
  %12 = icmp eq ptr %5, %9
  br i1 %12, label %28, label %13

13:                                               ; preds = %11
  %14 = load i32, ptr %4, align 8, !tbaa !27
  %15 = icmp eq i32 %14, 2147483647
  br i1 %15, label %16, label %25

16:                                               ; preds = %13
  %17 = load i32, ptr %5, align 8, !tbaa !27
  %18 = icmp eq i32 %17, 2147483647
  br i1 %18, label %19, label %25

19:                                               ; preds = %16
  %20 = getelementptr inbounds nuw i8, ptr %4, i64 16
  %21 = load double, ptr %20, align 8, !tbaa !30
  %22 = getelementptr inbounds nuw i8, ptr %5, i64 16
  %23 = load double, ptr %22, align 8, !tbaa !30
  %24 = fcmp ult double %21, %23
  %. = select i1 %24, ptr %5, ptr %4
  br label %28

25:                                               ; preds = %16, %13
  %26 = icmp ugt ptr %4, %5
  br i1 %26, label %27, label %28

27:                                               ; preds = %25
  store ptr %5, ptr %1, align 8, !tbaa !26
  store ptr %4, ptr %2, align 8, !tbaa !26
  br label %28

28:                                               ; preds = %25, %27, %19, %11, %7, %3
  %.0 = phi ptr [ %4, %3 ], [ %5, %7 ], [ %4, %11 ], [ %., %19 ], [ null, %27 ], [ null, %25 ]
  ret ptr %.0
}